; ModuleID = 'source-C-CXX/55/1081.c'
source_filename = "source-C-CXX/55/1081.c"
target datalayout = "e-m:e-p270:32:32-p271:32:32-p272:64:64-i64:64-f80:128-n8:16:32:64-S128"
target triple = "x86_64-pc-linux-gnu"

@.str = private unnamed_addr constant [3 x i8] c"%d\00", align 1
@.str.1 = private unnamed_addr constant [6 x i8] c"%d%d\0A\00", align 1
@.str.2 = private unnamed_addr constant [8 x i8] c"%d%d%d\0A\00", align 1
@.str.3 = private unnamed_addr constant [10 x i8] c"%d%d%d%d\0A\00", align 1
@.str.4 = private unnamed_addr constant [12 x i8] c"%d%d%d%d%d\0A\00", align 1

; Function Attrs: nofree nounwind sspstrong uwtable
define dso_local i32 @main() local_unnamed_addr #0 {
  %1 = alloca i32, align 4
  %2 = bitcast i32* %1 to i8*
  call void @llvm.lifetime.start.p0i8(i64 4, i8* nonnull %2) #3
  %3 = call i32 (i8*, ...) @__isoc99_scanf(i8* getelementptr inbounds ([3 x i8], [3 x i8]* @.str, i64 0, i64 0), i32* nonnull %1)
  %4 = load i32, i32* %1, align 4, !tbaa !5
  %5 = icmp slt i32 %4, 100
  br i1 %5, label %6, label %10

6:                                                ; preds = %0
  %7 = srem i32 %4, 10
  %8 = sdiv i32 %4, 10
  %9 = call i32 (i8*, ...) @printf(i8* nonnull dereferenceable(1) getelementptr inbounds ([6 x i8], [6 x i8]* @.str.1, i64 0, i64 0), i32 %7, i32 %8)
  br label %56

10:                                               ; preds = %0
  %11 = icmp slt i32 %4, 1000
  br i1 %11, label %12, label %24

12:                                               ; preds = %10
  %13 = trunc i32 %4 to i16
  %14 = udiv i16 %13, 100
  %15 = zext i16 %14 to i32
  %16 = mul nsw i32 %15, -100
  %17 = add nsw i32 %16, %4
  %18 = trunc i32 %17 to i16
  %19 = srem i16 %18, 10
  %20 = sext i16 %19 to i32
  %21 = sdiv i16 %18, 10
  %22 = sext i16 %21 to i32
  %23 = call i32 (i8*, ...) @printf(i8* nonnull dereferenceable(1) getelementptr inbounds ([8 x i8], [8 x i8]* @.str.2, i64 0, i64 0), i32 %20, i32 %22, i32 %15)
  br label %56

24:                                               ; preds = %10
  %25 = icmp slt i32 %4, 10000
  br i1 %25, label %26, label %40

26:                                               ; preds = %24
  %27 = trunc i32 %4 to i16
  %28 = urem i16 %27, 1000
  %29 = udiv i16 %27, 1000
  %30 = zext i16 %29 to i32
  %31 = urem i16 %28, 100
  %32 = udiv i16 %28, 100
  %33 = zext i16 %32 to i32
  %34 = trunc i16 %31 to i8
  %35 = urem i8 %34, 10
  %36 = zext i8 %35 to i32
  %37 = udiv i8 %34, 10
  %38 = zext i8 %37 to i32
  %39 = call i32 (i8*, ...) @printf(i8* nonnull dereferenceable(1) getelementptr inbounds ([10 x i8], [10 x i8]* @.str.3, i64 0, i64 0), i32 %36, i32 %38, i32 %33, i32 %30)
  br label %56

40:                                               ; preds = %24
  %41 = urem i32 %4, 10000
  %42 = udiv i32 %4, 10000
  %43 = trunc i32 %41 to i16
  %44 = urem i16 %43, 1000
  %45 = udiv i16 %43, 1000
  %46 = zext i16 %45 to i32
  %47 = urem i16 %44, 100
  %48 = udiv i16 %44, 100
  %49 = zext i16 %48 to i32
  %50 = trunc i16 %47 to i8
  %51 = urem i8 %50, 10
  %52 = zext i8 %51 to i32
  %53 = udiv i8 %50, 10
  %54 = zext i8 %53 to i32
  %55 = call i32 (i8*, ...) @printf(i8* nonnull dereferenceable(1) getelementptr inbounds ([12 x i8], [12 x i8]* @.str.4, i64 0, i64 0), i32 %52, i32 %54, i32 %49, i32 %46, i32 %42)
  br label %56

56:                                               ; preds = %12, %40, %26, %6
  call void @llvm.lifetime.end.p0i8(i64 4, i8* nonnull %2) #3
  ret i32 0
}

; Function Attrs: argmemonly mustprogress nofree nosync nounwind willreturn
declare void @llvm.lifetime.start.p0i8(i64 immarg, i8* nocapture) #1

; Function Attrs: nofree nounwind
declare noundef i32 @__isoc99_scanf(i8* nocapture noundef readonly, ...) local_unnamed_addr #2

; Function Attrs: nofree nounwind
declare noundef i32 @printf(i8* nocapture noundef readonly, ...) local_unnamed_addr #2

; Function Attrs: argmemonly mustprogress nofree nosync nounwind willreturn
declare void @llvm.lifetime.end.p0i8(i64 immarg, i8* nocapture) #1


!llvm.module.flags = !{!0, !1, !2, !3}
!llvm.ident = !{!4}

!0 = !{i32 1, !"wchar_size", i32 4}
!1 = !{i32 7, !"PIC Level", i32 2}
!2 = !{i32 7, !"PIE Level", i32 2}
!3 = !{i32 7, !"uwtable", i32 1}
!4 = !{!"clang version 13.0.0"}
!5 = !{!6, !6, i64 0}
!6 = !{!"int", !7, i64 0}
!7 = !{!"omnipotent char", !8, i64 0}
!8 = !{!"Simple C/C++ TBAA"}
